target datalayout = "e-m:e-p270:32:32-p271:32:32-p272:64:64-i64:64-i128:128-f80:128-n8:16:32:64-S128"
target triple = "x86_64-unknown-linux-gnu"

%"class.std::shared_ptr" = type { %"class.std::__shared_ptr" }
%"class.std::__shared_ptr" = type { ptr, %"class.std::__shared_count" }
%"class.std::__shared_count" = type { ptr }
%"struct.std::_Vector_base.268" = type { %"struct.std::_Vector_base<std::shared_ptr<cvc5::internal::ProofNode>, std::allocator<std::shared_ptr<cvc5::internal::ProofNode>>>::_Vector_impl" }
%"struct.std::_Vector_base<std::shared_ptr<cvc5::internal::ProofNode>, std::allocator<std::shared_ptr<cvc5::internal::ProofNode>>>::_Vector_impl" = type { %"struct.std::_Vector_base<std::shared_ptr<cvc5::internal::ProofNode>, std::allocator<std::shared_ptr<cvc5::internal::ProofNode>>>::_Vector_impl_data" }
%"struct.std::_Vector_base<std::shared_ptr<cvc5::internal::ProofNode>, std::allocator<std::shared_ptr<cvc5::internal::ProofNode>>>::_Vector_impl_data" = type { ptr, ptr, ptr }

; Function Attrs: mustprogress nounwind uwtable
define linkonce_odr hidden noundef ptr @_ZNKSt12__shared_ptrIN4cvc58internal9ProofNodeELN9__gnu_cxx12_Lock_policyE2EE3getEv(ptr noundef nonnull align 8 dereferenceable(16) %this) #5 comdat align 2 {
entry:
  %this.addr = alloca ptr, align 8
  store ptr %this, ptr %this.addr, align 8
  %this1 = load ptr, ptr %this.addr, align 8
  %_M_ptr = getelementptr inbounds %"class.std::__shared_ptr", ptr %this1, i32 0, i32 0
  %0 = load ptr, ptr %_M_ptr, align 8
  ret ptr %0
}

; Function Attrs: mustprogress nounwind uwtable
define linkonce_odr hidden noundef ptr @_ZNKSt19__shared_ptr_accessIN4cvc58internal9ProofNodeELN9__gnu_cxx12_Lock_policyE2ELb0ELb0EE6_M_getEv(ptr noundef nonnull align 1 dereferenceable(1) %this) #5 comdat align 2 {
entry:
  %this.addr = alloca ptr, align 8
  store ptr %this, ptr %this.addr, align 8
  %this1 = load ptr, ptr %this.addr, align 8
  %call = call noundef ptr @_ZNKSt12__shared_ptrIN4cvc58internal9ProofNodeELN9__gnu_cxx12_Lock_policyE2EE3getEv(ptr noundef nonnull align 8 dereferenceable(16) %this1) #3
  ret ptr %call
}

; Function Attrs: mustprogress nounwind uwtable
define linkonce_odr hidden noundef ptr @_ZNKSt19__shared_ptr_accessIN4cvc58internal9ProofNodeELN9__gnu_cxx12_Lock_policyE2ELb0ELb0EEptEv(ptr noundef nonnull align 1 dereferenceable(1) %this) #5 comdat align 2 {
entry:
  %this.addr = alloca ptr, align 8
  store ptr %this, ptr %this.addr, align 8
  %this1 = load ptr, ptr %this.addr, align 8
  %call = call noundef ptr @_ZNKSt19__shared_ptr_accessIN4cvc58internal9ProofNodeELN9__gnu_cxx12_Lock_policyE2ELb0ELb0EE6_M_getEv(ptr noundef nonnull align 1 dereferenceable(1) %this1) #3
  ret ptr %call
}

; Function Attrs: mustprogress nounwind uwtable
define linkonce_odr hidden noundef nonnull align 8 dereferenceable(16) ptr @_ZNKSt6vectorISt10shared_ptrIN4cvc58internal9ProofNodeEESaIS4_EEixEm(ptr noundef nonnull align 8 dereferenceable(24) %this, i64 noundef %__n) #5 comdat align 2 {
entry:
  %this.addr = alloca ptr, align 8
  %__n.addr = alloca i64, align 8
  store ptr %this, ptr %this.addr, align 8
  store i64 %__n, ptr %__n.addr, align 8
  %this1 = load ptr, ptr %this.addr, align 8
  %_M_impl = getelementptr inbounds %"struct.std::_Vector_base.268", ptr %this1, i32 0, i32 0
  %_M_start = getelementptr inbounds %"struct.std::_Vector_base<std::shared_ptr<cvc5::internal::ProofNode>, std::allocator<std::shared_ptr<cvc5::internal::ProofNode>>>::_Vector_impl_data", ptr %_M_impl, i32 0, i32 0
  %0 = load ptr, ptr %_M_start, align 8
  %1 = load i64, ptr %__n.addr, align 8
  %add.ptr = getelementptr inbounds %"class.std::shared_ptr", ptr %0, i64 %1
  ret ptr %add.ptr
}

; Function Attrs: mustprogress uwtable
define hidden noundef zeroext i1 @_ZN4cvc58internal7CDProof12isAssumptionEPNS0_9ProofNodeE(ptr noundef %pn) #4 align 2 {
entry:
  %retval = alloca i1, align 1
  %pn.addr = alloca ptr, align 8
  %rule = alloca i32, align 4
  %pc = alloca ptr, align 8
  store ptr %pn, ptr %pn.addr, align 8
  %0 = load ptr, ptr %pn.addr, align 8
  %call = call noundef i32 @_ZNK4cvc58internal9ProofNode7getRuleEv(ptr noundef nonnull align 8 dereferenceable(65) %0)
  store i32 %call, ptr %rule, align 4
  %1 = load i32, ptr %rule, align 4
  %cmp = icmp eq i32 %1, 0
  br i1 %cmp, label %if.then, label %if.else

if.then:                                          ; preds = %entry
  store i1 true, ptr %retval, align 1
  br label %return

if.else:                                          ; preds = %entry
  %2 = load i32, ptr %rule, align 4
  %cmp1 = icmp ne i32 %2, 68
  br i1 %cmp1, label %if.then2, label %if.end

if.then2:                                         ; preds = %if.else
  store i1 false, ptr %retval, align 1
  br label %return

if.end:                                           ; preds = %if.else
  br label %if.end3

if.end3:                                          ; preds = %if.end
  %3 = load ptr, ptr %pn.addr, align 8
  %call4 = call noundef ptr @_ZN4cvc58internal16ProofNodeManager16cancelDoubleSymmEPNS0_9ProofNodeE(ptr noundef %3)
  store ptr %call4, ptr %pn.addr, align 8
  %4 = load ptr, ptr %pn.addr, align 8
  %call5 = call noundef i32 @_ZNK4cvc58internal9ProofNode7getRuleEv(ptr noundef nonnull align 8 dereferenceable(65) %4)
  store i32 %call5, ptr %rule, align 4
  %5 = load i32, ptr %rule, align 4
  %cmp6 = icmp eq i32 %5, 0
  br i1 %cmp6, label %if.then7, label %if.else8

if.then7:                                         ; preds = %if.end3
  store i1 true, ptr %retval, align 1
  br label %return

if.else8:                                         ; preds = %if.end3
  %6 = load i32, ptr %rule, align 4
  %cmp9 = icmp ne i32 %6, 68
  br i1 %cmp9, label %if.then10, label %if.end11

if.then10:                                        ; preds = %if.else8
  store i1 false, ptr %retval, align 1
  br label %return

if.end11:                                         ; preds = %if.else8
  br label %if.end12

if.end12:                                         ; preds = %if.end11
  %7 = load ptr, ptr %pn.addr, align 8
  %call13 = call noundef nonnull align 8 dereferenceable(24) ptr @_ZNK4cvc58internal9ProofNode11getChildrenEv(ptr noundef nonnull align 8 dereferenceable(65) %7)
  store ptr %call13, ptr %pc, align 8
  %8 = load ptr, ptr %pc, align 8
  %call14 = call noundef nonnull align 8 dereferenceable(16) ptr @_ZNKSt6vectorISt10shared_ptrIN4cvc58internal9ProofNodeEESaIS4_EEixEm(ptr noundef nonnull align 8 dereferenceable(24) %8, i64 noundef 0) #3
  %call15 = call noundef ptr @_ZNKSt19__shared_ptr_accessIN4cvc58internal9ProofNodeELN9__gnu_cxx12_Lock_policyE2ELb0ELb0EEptEv(ptr noundef nonnull align 1 dereferenceable(1) %call14) #3
  %call16 = call noundef i32 @_ZNK4cvc58internal9ProofNode7getRuleEv(ptr noundef nonnull align 8 dereferenceable(65) %call15)
  %cmp17 = icmp eq i32 %call16, 0
  store i1 %cmp17, ptr %retval, align 1
  br label %return

return:                                           ; preds = %if.end12, %if.then10, %if.then7, %if.then2, %if.then
  %9 = load i1, ptr %retval, align 1
  ret i1 %9
}