; Function Attrs: mustprogress uwtable
define hidden noundef zeroext i1 @_ZN4cvc58internal7CDProof12isAssumptionEPNS0_9ProofNodeE(ptr noundef nonnull %pn) local_unnamed_addr #3 align 2 {
entry:
  %call = tail call noundef i32 @_ZNK4cvc58internal9ProofNode7getRuleEv(ptr noundef nonnull align 8 dereferenceable(65) %pn)
  switch i32 %call, label %if.then2 [
    i32 0, label %return
    i32 68, label %if.end3
  ]

if.then2:                                         ; preds = %entry
  br label %return

if.end3:                                          ; preds = %entry
  %call4 = tail call noundef ptr @_ZN4cvc58internal16ProofNodeManager16cancelDoubleSymmEPNS0_9ProofNodeE(ptr noundef nonnull %pn)
  %call5 = tail call noundef i32 @_ZNK4cvc58internal9ProofNode7getRuleEv(ptr noundef nonnull align 8 dereferenceable(65) %call4)
  switch i32 %call5, label %if.then10 [
    i32 0, label %return
    i32 68, label %if.end12
  ]

if.then10:                                        ; preds = %if.end3
  br label %return

if.end12:                                         ; preds = %if.end3
  %call13 = tail call noundef nonnull align 8 dereferenceable(24) ptr @_ZNK4cvc58internal9ProofNode11getChildrenEv(ptr noundef nonnull align 8 dereferenceable(65) %call4)
  %0 = load ptr, ptr %call13, align 8
  %1 = load ptr, ptr %0, align 8
  %call16 = tail call noundef i32 @_ZNK4cvc58internal9ProofNode7getRuleEv(ptr noundef nonnull align 8 dereferenceable(65) %1)
  %cmp17 = icmp eq i32 %call16, 0
  br label %return

return:                                           ; preds = %if.end3, %entry, %if.end12, %if.then10, %if.then2
  %retval.0 = phi i1 [ false, %if.then2 ], [ false, %if.then10 ], [ %cmp17, %if.end12 ], [ true, %entry ], [ true, %if.end3 ]
  ret i1 %retval.0
}